#include <math.h>
#include <stdio.h>
#include <stdlib.h>
#include <string.h>

int sushu(int b);
int main(){
int p;
scanf("%d",&p);
for(int i=1;i<=12;i++){
	if((sushu(i)+p)%7==5)
		printf("%d\n",i);
}
return 0;
	}
int sushu(int b){
	int i;
	int a;
	a=0;
	for(i=1;i<=b;i++){
		if(i==2||i==4||i==6||i==8||i==9||i==11)
		a+=31;
		else if(i==1)
			a+=12;
			else if(i==3)
		a+=28;
			else if(i==5||i==7||i==10||i==12)
				a+=30;
	}
	return a;
}