; ModuleID = '50/1459.c'
source_filename = "50/1459.c"
target datalayout = "e-m:e-p270:32:32-p271:32:32-p272:64:64-i64:64-f80:128-n8:16:32:64-S128"
target triple = "x86_64-pc-linux-gnu"

@.str = private unnamed_addr constant [3 x i8] c"%d\00", align 1
@.str.1 = private unnamed_addr constant [4 x i8] c"%d\0A\00", align 1

; Function Attrs: noinline nounwind uwtable
define dso_local i32 @main() #0 {
  %1 = alloca i32, align 4
  %2 = alloca i32, align 4
  %3 = alloca i32, align 4
  store i32 0, i32* %1, align 4
  %4 = call i32 (i8*, ...) @__isoc99_scanf(i8* getelementptr inbounds ([3 x i8], [3 x i8]* @.str, i64 0, i64 0), i32* %2)
  store i32 1, i32* %3, align 4
  br label %5

5:                                                ; preds = %19, %0
  %6 = load i32, i32* %3, align 4
  %7 = icmp sle i32 %6, 12
  br i1 %7, label %8, label %22

8:                                                ; preds = %5
  %9 = load i32, i32* %3, align 4
  %10 = call i32 @sushu(i32 %9)
  %11 = load i32, i32* %2, align 4
  %12 = add nsw i32 %10, %11
  %13 = srem i32 %12, 7
  %14 = icmp eq i32 %13, 5
  br i1 %14, label %15, label %18

15:                                               ; preds = %8
  %16 = load i32, i32* %3, align 4
  %17 = call i32 (i8*, ...) @printf(i8* getelementptr inbounds ([4 x i8], [4 x i8]* @.str.1, i64 0, i64 0), i32 %16)
  br label %18

18:                                               ; preds = %15, %8
  br label %19

19:                                               ; preds = %18
  %20 = load i32, i32* %3, align 4
  %21 = add nsw i32 %20, 1
  store i32 %21, i32* %3, align 4
  br label %5

22:                                               ; preds = %5
  ret i32 0
}

declare dso_local i32 @__isoc99_scanf(i8*, ...) #1

; Function Attrs: noinline nounwind uwtable
define dso_local i32 @sushu(i32 %0) #0 {
  %2 = alloca i32, align 4
  %3 = alloca i32, align 4
  %4 = alloca i32, align 4
  store i32 %0, i32* %2, align 4
  store i32 0, i32* %4, align 4
  store i32 1, i32* %3, align 4
  br label %5

5:                                                ; preds = %61, %1
  %6 = load i32, i32* %3, align 4
  %7 = load i32, i32* %2, align 4
  %8 = icmp sle i32 %6, %7
  br i1 %8, label %9, label %64

9:                                                ; preds = %5
  %10 = load i32, i32* %3, align 4
  %11 = icmp eq i32 %10, 2
  br i1 %11, label %27, label %12

12:                                               ; preds = %9
  %13 = load i32, i32* %3, align 4
  %14 = icmp eq i32 %13, 4
  br i1 %14, label %27, label %15

15:                                               ; preds = %12
  %16 = load i32, i32* %3, align 4
  %17 = icmp eq i32 %16, 6
  br i1 %17, label %27, label %18

18:                                               ; preds = %15
  %19 = load i32, i32* %3, align 4
  %20 = icmp eq i32 %19, 8
  br i1 %20, label %27, label %21

21:                                               ; preds = %18
  %22 = load i32, i32* %3, align 4
  %23 = icmp eq i32 %22, 9
  br i1 %23, label %27, label %24

24:                                               ; preds = %21
  %25 = load i32, i32* %3, align 4
  %26 = icmp eq i32 %25, 11
  br i1 %26, label %27, label %30

27:                                               ; preds = %24, %21, %18, %15, %12, %9
  %28 = load i32, i32* %4, align 4
  %29 = add nsw i32 %28, 31
  store i32 %29, i32* %4, align 4
  br label %60

30:                                               ; preds = %24
  %31 = load i32, i32* %3, align 4
  %32 = icmp eq i32 %31, 1
  br i1 %32, label %33, label %36

33:                                               ; preds = %30
  %34 = load i32, i32* %4, align 4
  %35 = add nsw i32 %34, 12
  store i32 %35, i32* %4, align 4
  br label %59

36:                                               ; preds = %30
  %37 = load i32, i32* %3, align 4
  %38 = icmp eq i32 %37, 3
  br i1 %38, label %39, label %42

39:                                               ; preds = %36
  %40 = load i32, i32* %4, align 4
  %41 = add nsw i32 %40, 28
  store i32 %41, i32* %4, align 4
  br label %58

42:                                               ; preds = %36
  %43 = load i32, i32* %3, align 4
  %44 = icmp eq i32 %43, 5
  br i1 %44, label %54, label %45

45:                                               ; preds = %42
  %46 = load i32, i32* %3, align 4
  %47 = icmp eq i32 %46, 7
  br i1 %47, label %54, label %48

48:                                               ; preds = %45
  %49 = load i32, i32* %3, align 4
  %50 = icmp eq i32 %49, 10
  br i1 %50, label %54, label %51

51:                                               ; preds = %48
  %52 = load i32, i32* %3, align 4
  %53 = icmp eq i32 %52, 12
  br i1 %53, label %54, label %57

54:                                               ; preds = %51, %48, %45, %42
  %55 = load i32, i32* %4, align 4
  %56 = add nsw i32 %55, 30
  store i32 %56, i32* %4, align 4
  br label %57

57:                                               ; preds = %54, %51
  br label %58

58:                                               ; preds = %57, %39
  br label %59

59:                                               ; preds = %58, %33
  br label %60

60:                                               ; preds = %59, %27
  br label %61

61:                                               ; preds = %60
  %62 = load i32, i32* %3, align 4
  %63 = add nsw i32 %62, 1
  store i32 %63, i32* %3, align 4
  br label %5

64:                                               ; preds = %5
  %65 = load i32, i32* %4, align 4
  ret i32 %65
}

declare dso_local i32 @printf(i8*, ...) #1


!llvm.module.flags = !{!0}
!llvm.ident = !{!1}

!0 = !{i32 1, !"wchar_size", i32 4}
!1 = !{!"clang version 10.0.0-4ubuntu1 "}
